(dp0
S'OriginalConfig'
p1
ccopy_reg
_reconstructor
p2
(cWMCore.Configuration
Configuration
p3
c__builtin__
object
p4
Ntp5
Rp6
(dp7
S'Site'
p8
g2
(cWMCore.Configuration
ConfigSection
p9
g4
Ntp10
Rp11
(dp12
S'_internal_skipChecks'
p13
I00
sS'_internal_documentation'
p14
S''
p15
sS'_internal_settings'
p16
c__builtin__
set
p17
((lp18
S'storageSite'
p19
atp20
Rp21
sS'_internal_name'
p22
g8
sS'_internal_docstrings'
p23
(dp24
sS'_internal_children'
p25
g17
((lp26
tp27
Rp28
sg19
S'T3_KR_KNU'
p29
sS'_internal_parent_ref'
p30
NsbsS'_internal_sections'
p31
(lp32
S'General'
p33
aS'JobType'
p34
aS'Data'
p35
ag8
aS'User'
p36
aS'Debug'
p37
asg36
g2
(g9
g4
Ntp38
Rp39
(dp40
g13
I00
sg14
g15
sg16
g17
((lp41
tp42
Rp43
sg22
g36
sg23
(dp44
sg25
g17
((lp45
tp46
Rp47
sg30
Nsbsg37
g2
(g9
g4
Ntp48
Rp49
(dp50
g13
I00
sg14
g15
sg16
g17
((lp51
tp52
Rp53
sg22
g37
sg23
(dp54
sg25
g17
((lp55
tp56
Rp57
sg30
Nsbsg33
g2
(g9
g4
Ntp58
Rp59
(dp60
g13
I00
sg14
g15
sg16
g17
((lp61
S'transferOutputs'
p62
atp63
Rp64
sg22
g33
sg23
(dp65
sg62
I01
sg25
g17
((lp66
tp67
Rp68
sg30
Nsbsg35
g2
(g9
g4
Ntp69
Rp70
(dp71
S'inputDataset'
p72
S'/TTTo2L2Nu_TuneCP5_13TeV-powheg-pythia8/RunIISummer20UL16MiniAODAPVv2-106X_mcRun2_asymptotic_preVFP_v11-v1/MINIAODSIM'
p73
sg13
I00
sS'unitsPerJob'
p74
I25000
sg14
g15
sg16
g17
((lp75
g72
ag74
aS'outLFNDirBase'
p76
aS'publication'
p77
aS'splitting'
p78
atp79
Rp80
sg22
g35
sg78
S'EventAwareLumiBased'
p81
sg23
(dp82
sg25
g17
((lp83
tp84
Rp85
sg76
S'/store/user/sha/Run2FULL/2016PreVFP/MC/TTTo2L2Nu_TuneCP5_13TeV-powheg-pythia8'
p86
sg30
Nsg77
I00
sbsg34
g2
(g9
g4
Ntp87
Rp88
(dp89
S'outputFiles'
p90
(lp91
S'SSBTree.root'
p92
asg13
I00
sg14
g15
sg16
g17
((lp93
S'psetName'
p94
aS'pluginName'
p95
ag90
aS'maxMemoryMB'
p96
aS'allowUndistributedCMSSW'
p97
atp98
Rp99
sg22
g34
sg23
(dp100
sg95
S'Analysis'
p101
sg25
g17
((lp102
tp103
Rp104
sg97
I01
sg94
S'../../python/ssbanalyzer_2016_cfg.py'
p105
sg30
Nsg96
I5000
sbsbsS'voGroup'
p106
g15
sS'Server'
p107
S'cmsweb.cern.ch'
p108
sS'instance'
p109
S'prod'
p110
sS'RequestName'
p111
V240205_053742:sha_crab_20240205_143158
p112
sS'voRole'
p113
S'NULL'
p114
sS'Port'
p115
g15
s.